target datalayout = "e-m:e-p270:32:32-p271:32:32-p272:64:64-i64:64-i128:128-f80:128-n8:16:32:64-S128"
target triple = "x86_64-unknown-linux-gnu"

%"class.node::quic::CID" = type { %"class.node::MemoryRetainer", %struct.ngtcp2_cid, ptr }
%"class.node::MemoryRetainer" = type { ptr }
%struct.ngtcp2_cid = type { i64, [20 x i8] }
%"struct.node::quic::TransportParams::Options" = type <{ %"class.node::MemoryRetainer", %"class.std::optional", %"class.std::optional", i64, i64, i64, i64, i64, i64, i64, i64, i64, i64, i64, i8, [7 x i8] }>
%"class.std::optional" = type { %"struct.std::_Optional_base" }
%"struct.std::_Optional_base" = type { %"struct.std::_Optional_payload" }
%"struct.std::_Optional_payload" = type { %"struct.std::_Optional_payload.base", [7 x i8] }
%"struct.std::_Optional_payload.base" = type { %"struct.std::_Optional_payload_base.base" }
%"struct.std::_Optional_payload_base.base" = type <{ %"union.std::_Optional_payload_base<node::SocketAddress>::_Storage", i8 }>
%"union.std::_Optional_payload_base<node::SocketAddress>::_Storage" = type { %"class.node::SocketAddress" }
%"class.node::SocketAddress" = type { %"class.node::MemoryRetainer", %struct.sockaddr_storage }
%struct.sockaddr_storage = type { i16, [118 x i8], i64 }
%"struct.node::quic::TLSContext::Options" = type { %"class.node::MemoryRetainer", %"class.std::__cxx11::basic_string", %"class.std::__cxx11::basic_string", i8, i8, i8, i8, i8, %"class.std::__cxx11::basic_string", %"class.std::__cxx11::basic_string", %"class.std::__cxx11::basic_string", %"class.std::vector", %"class.std::vector.8", %"class.std::vector.8", %"class.std::vector.8" }
%"class.std::__cxx11::basic_string" = type { %"struct.std::__cxx11::basic_string<char>::_Alloc_hider", i64, %union.anon }
%"struct.std::__cxx11::basic_string<char>::_Alloc_hider" = type { ptr }
%union.anon = type { i64, [8 x i8] }
%"class.std::vector" = type { %"struct.std::_Vector_base" }
%"struct.std::_Vector_base" = type { %"struct.std::_Vector_base<std::shared_ptr<node::crypto::KeyObjectData>, std::allocator<std::shared_ptr<node::crypto::KeyObjectData>>>::_Vector_impl" }
%"struct.std::_Vector_base<std::shared_ptr<node::crypto::KeyObjectData>, std::allocator<std::shared_ptr<node::crypto::KeyObjectData>>>::_Vector_impl" = type { %"struct.std::_Vector_base<std::shared_ptr<node::crypto::KeyObjectData>, std::allocator<std::shared_ptr<node::crypto::KeyObjectData>>>::_Vector_impl_data" }
%"struct.std::_Vector_base<std::shared_ptr<node::crypto::KeyObjectData>, std::allocator<std::shared_ptr<node::crypto::KeyObjectData>>>::_Vector_impl_data" = type { ptr, ptr, ptr }
%"class.std::vector.8" = type { %"struct.std::_Vector_base.9" }
%"struct.std::_Vector_base.9" = type { %"struct.std::_Vector_base<node::quic::Store, std::allocator<node::quic::Store>>::_Vector_impl" }
%"struct.std::_Vector_base<node::quic::Store, std::allocator<node::quic::Store>>::_Vector_impl" = type { %"struct.std::_Vector_base<node::quic::Store, std::allocator<node::quic::Store>>::_Vector_impl_data" }
%"struct.std::_Vector_base<node::quic::Store, std::allocator<node::quic::Store>>::_Vector_impl_data" = type { ptr, ptr, ptr }
%"struct.node::quic::Session::Application_Options" = type { %"class.node::MemoryRetainer", i64, i64, i64, i64, i64, i64 }
%"class.node::quic::Session" = type { %"class.node::AsyncWrap", %"class.node::quic::SessionTicket::AppData::Source", %"class.node::AliasedStruct", %"class.node::AliasedStruct.2", %struct.ngtcp2_mem, %"struct.node::quic::Session::Config", %"class.std::unique_ptr", %"class.node::BaseObjectPtrImpl.26", %"class.node::quic::TLSContext", %"class.std::unique_ptr.46", %"class.node::SocketAddress", %"class.node::SocketAddress", %"class.std::unordered_map", %"class.node::TimerWrapHandle", i64, i64, %"class.node::quic::QuicError", %"class.node::BaseObjectPtrImpl.59", %"class.node::BaseObjectPtrImpl.61", %"class.node::BaseObjectPtrImpl.61" }
%"class.node::AsyncWrap" = type { %"class.node::BaseObject", i32, i8, double, double }
%"class.node::BaseObject" = type { %"class.node::MemoryRetainer", %"class.v8::Global", ptr, ptr }
%"class.v8::Global" = type { %"class.v8::PersistentBase" }
%"class.v8::PersistentBase" = type { %"class.v8::IndirectHandleBase" }
%"class.v8::IndirectHandleBase" = type { ptr }
%"class.node::quic::SessionTicket::AppData::Source" = type { ptr }
%"class.node::AliasedStruct" = type { ptr, %"class.std::shared_ptr", ptr, %"class.v8::Global.0" }
%"class.std::shared_ptr" = type { %"class.std::__shared_ptr" }
%"class.std::__shared_ptr" = type { ptr, %"class.std::__shared_count" }
%"class.std::__shared_count" = type { ptr }
%"class.v8::Global.0" = type { %"class.v8::PersistentBase.1" }
%"class.v8::PersistentBase.1" = type { %"class.v8::IndirectHandleBase" }
%"class.node::AliasedStruct.2" = type { ptr, %"class.std::shared_ptr", ptr, %"class.v8::Global.0" }
%struct.ngtcp2_mem = type { ptr, ptr, ptr, ptr, ptr }
%"struct.node::quic::Session::Config" = type { %"class.node::MemoryRetainer", i32, [4 x i8], %"struct.node::quic::Session::Options", i32, %"class.node::SocketAddress", %"class.node::SocketAddress", %"class.node::quic::CID", %"class.node::quic::CID", %"class.node::quic::CID", %"class.node::quic::CID", %"class.node::quic::CID", %"class.std::optional.14", %struct.ngtcp2_settings }
%"struct.node::quic::Session::Options" = type <{ %"class.node::MemoryRetainer", i32, i32, i32, [4 x i8], %"struct.node::quic::TransportParams::Options", %"struct.node::quic::TLSContext::Options", %"struct.node::quic::Session::Application_Options", ptr, %"class.node::BaseObjectPtrImpl", i8, [7 x i8] }>
%"class.node::BaseObjectPtrImpl" = type { %union.anon.13 }
%union.anon.13 = type { ptr }
%"class.std::optional.14" = type { %"struct.std::_Optional_base.15" }
%"struct.std::_Optional_base.15" = type { %"struct.std::_Optional_payload.17" }
%"struct.std::_Optional_payload.17" = type { %"struct.std::_Optional_payload.base.21", [7 x i8] }
%"struct.std::_Optional_payload.base.21" = type { %"struct.std::_Optional_payload_base.base.20" }
%"struct.std::_Optional_payload_base.base.20" = type <{ %"union.std::_Optional_payload_base<node::quic::SessionTicket>::_Storage", i8 }>
%"union.std::_Optional_payload_base<node::quic::SessionTicket>::_Storage" = type { %"class.node::quic::SessionTicket" }
%"class.node::quic::SessionTicket" = type { %"class.node::MemoryRetainer", %"class.node::quic::Store", %"class.node::quic::Store" }
%"class.node::quic::Store" = type { %"class.node::MemoryRetainer", %"class.std::shared_ptr", i64, i64 }
%struct.ngtcp2_settings = type { %struct.ngtcp2_qlog_settings, i32, i64, i64, ptr, i64, %struct.ngtcp2_vec, %struct.ngtcp2_rand_ctx, i64, i64, i64, i32, i64, ptr, i64, ptr, i64, i32, i32 }
%struct.ngtcp2_qlog_settings = type { %struct.ngtcp2_cid, ptr }
%struct.ngtcp2_vec = type { ptr, i64 }
%struct.ngtcp2_rand_ctx = type { ptr }
%"class.std::unique_ptr" = type { %"struct.std::__uniq_ptr_data" }
%"struct.std::__uniq_ptr_data" = type { %"class.std::__uniq_ptr_impl" }
%"class.std::__uniq_ptr_impl" = type { %"class.std::tuple" }
%"class.std::tuple" = type { %"struct.std::_Tuple_impl" }
%"struct.std::_Tuple_impl" = type { %"struct.std::_Head_base.25" }
%"struct.std::_Head_base.25" = type { ptr }
%"class.node::BaseObjectPtrImpl.26" = type { %union.anon.27 }
%union.anon.27 = type { ptr }
%"class.node::quic::TLSContext" = type <{ %"class.node::MemoryRetainer", %struct.ngtcp2_crypto_conn_ref, i32, [4 x i8], ptr, ptr, %"struct.node::quic::TLSContext::Options", %"class.node::BaseObjectPtrImpl.28", %"class.std::unique_ptr.30", %"class.std::unique_ptr.38", i8, i8, [6 x i8] }>
%struct.ngtcp2_crypto_conn_ref = type { ptr, ptr }
%"class.node::BaseObjectPtrImpl.28" = type { %union.anon.29 }
%union.anon.29 = type { ptr }
%"class.std::unique_ptr.30" = type { %"struct.std::__uniq_ptr_data.31" }
%"struct.std::__uniq_ptr_data.31" = type { %"class.std::__uniq_ptr_impl.32" }
%"class.std::__uniq_ptr_impl.32" = type { %"class.std::tuple.33" }
%"class.std::tuple.33" = type { %"struct.std::_Tuple_impl.34" }
%"struct.std::_Tuple_impl.34" = type { %"struct.std::_Head_base.37" }
%"struct.std::_Head_base.37" = type { ptr }
%"class.std::unique_ptr.38" = type { %"struct.std::__uniq_ptr_data.39" }
%"struct.std::__uniq_ptr_data.39" = type { %"class.std::__uniq_ptr_impl.40" }
%"class.std::__uniq_ptr_impl.40" = type { %"class.std::tuple.41" }
%"class.std::tuple.41" = type { %"struct.std::_Tuple_impl.42" }
%"struct.std::_Tuple_impl.42" = type { %"struct.std::_Head_base.45" }
%"struct.std::_Head_base.45" = type { ptr }
%"class.std::unique_ptr.46" = type { %"struct.std::__uniq_ptr_data.47" }
%"struct.std::__uniq_ptr_data.47" = type { %"class.std::__uniq_ptr_impl.48" }
%"class.std::__uniq_ptr_impl.48" = type { %"class.std::tuple.49" }
%"class.std::tuple.49" = type { %"struct.std::_Tuple_impl.50" }
%"struct.std::_Tuple_impl.50" = type { %"struct.std::_Head_base.53" }
%"struct.std::_Head_base.53" = type { ptr }
%"class.std::unordered_map" = type { %"class.std::_Hashtable" }
%"class.std::_Hashtable" = type { ptr, i64, %"struct.std::__detail::_Hash_node_base", i64, %"struct.std::__detail::_Prime_rehash_policy", ptr }
%"struct.std::__detail::_Hash_node_base" = type { ptr }
%"struct.std::__detail::_Prime_rehash_policy" = type { float, i64 }
%"class.node::TimerWrapHandle" = type { %"class.node::MemoryRetainer", ptr }
%"class.node::quic::QuicError" = type { %"class.node::MemoryRetainer", %"class.std::__cxx11::basic_string", %struct.ngtcp2_connection_close_error, ptr }
%struct.ngtcp2_connection_close_error = type { i32, i64, i64, ptr, i64 }
%"class.node::BaseObjectPtrImpl.59" = type { %union.anon.60 }
%union.anon.60 = type { ptr }
%"class.node::BaseObjectPtrImpl.61" = type { %union.anon.62 }
%union.anon.62 = type { ptr }
%"struct.node::quic::Session::State" = type { i8, i8, i8, i8, i8, i8, i8, i8, i8, i8, i8, i8, i8, i64 }

; Function Attrs: mustprogress nounwind uwtable
define linkonce_odr dso_local noundef nonnull align 8 dereferenceable(8) ptr @_ZNSt10_Head_baseILm0EP11ngtcp2_connLb0EE7_M_headERKS2_(ptr noundef nonnull align 8 dereferenceable(8) %__b) #4 comdat align 2 {
entry:
  %__b.addr = alloca ptr, align 8
  store ptr %__b, ptr %__b.addr, align 8
  %0 = load ptr, ptr %__b.addr, align 8
  %_M_head_impl = getelementptr inbounds %"struct.std::_Head_base.25", ptr %0, i32 0, i32 0
  ret ptr %_M_head_impl
}

; Function Attrs: mustprogress nounwind uwtable
define linkonce_odr dso_local noundef nonnull align 8 dereferenceable(8) ptr @_ZNSt11_Tuple_implILm0EJP11ngtcp2_connN4node15FunctionDeleterIS0_XadL_Z15ngtcp2_conn_delEEEEEE7_M_headERKS5_(ptr noundef nonnull align 8 dereferenceable(8) %__t) #4 comdat align 2 {
entry:
  %__t.addr = alloca ptr, align 8
  store ptr %__t, ptr %__t.addr, align 8
  %0 = load ptr, ptr %__t.addr, align 8
  %call = call noundef nonnull align 8 dereferenceable(8) ptr @_ZNSt10_Head_baseILm0EP11ngtcp2_connLb0EE7_M_headERKS2_(ptr noundef nonnull align 8 dereferenceable(8) %0) #3
  ret ptr %call
}

; Function Attrs: mustprogress nounwind uwtable
define linkonce_odr dso_local noundef nonnull align 8 dereferenceable(8) ptr @_ZSt12__get_helperILm0EP11ngtcp2_connJN4node15FunctionDeleterIS0_XadL_Z15ngtcp2_conn_delEEEEEERKT0_RKSt11_Tuple_implIXT_EJS5_DpT1_EE(ptr noundef nonnull align 8 dereferenceable(8) %__t) #4 comdat {
entry:
  %__t.addr = alloca ptr, align 8
  store ptr %__t, ptr %__t.addr, align 8
  %0 = load ptr, ptr %__t.addr, align 8
  %call = call noundef nonnull align 8 dereferenceable(8) ptr @_ZNSt11_Tuple_implILm0EJP11ngtcp2_connN4node15FunctionDeleterIS0_XadL_Z15ngtcp2_conn_delEEEEEE7_M_headERKS5_(ptr noundef nonnull align 8 dereferenceable(8) %0) #3
  ret ptr %call
}

; Function Attrs: mustprogress nounwind uwtable
define linkonce_odr dso_local noundef nonnull align 8 dereferenceable(8) ptr @_ZSt3getILm0EJP11ngtcp2_connN4node15FunctionDeleterIS0_XadL_Z15ngtcp2_conn_delEEEEEERKNSt13tuple_elementIXT_ESt5tupleIJDpT0_EEE4typeERKS9_(ptr noundef nonnull align 8 dereferenceable(8) %__t) #4 comdat {
entry:
  %__t.addr = alloca ptr, align 8
  store ptr %__t, ptr %__t.addr, align 8
  %0 = load ptr, ptr %__t.addr, align 8
  %call = call noundef nonnull align 8 dereferenceable(8) ptr @_ZSt12__get_helperILm0EP11ngtcp2_connJN4node15FunctionDeleterIS0_XadL_Z15ngtcp2_conn_delEEEEEERKT0_RKSt11_Tuple_implIXT_EJS5_DpT1_EE(ptr noundef nonnull align 8 dereferenceable(8) %0) #3
  ret ptr %call
}

; Function Attrs: mustprogress nounwind uwtable
define linkonce_odr dso_local noundef i64 @_ZNSt10_HashtableIlSt4pairIKlN4node17BaseObjectPtrImplINS2_4quic6StreamELb0EEEESaIS7_ENSt8__detail10_Select1stESt8equal_toIlESt4hashIlENS9_18_Mod_range_hashingENS9_20_Default_ranged_hashENS9_20_Prime_rehash_policyENS9_17_Hashtable_traitsILb0ELb0ELb1EEEE5eraseERS1_(ptr noundef nonnull align 8 dereferenceable(56) %this, ptr noundef nonnull align 8 dereferenceable(8) %__k) #4 comdat align 2 {
entry:
  %this.addr = alloca ptr, align 8
  %__k.addr = alloca ptr, align 8
  store ptr %this, ptr %this.addr, align 8
  store ptr %__k, ptr %__k.addr, align 8
  %this1 = load ptr, ptr %this.addr, align 8
  %0 = load ptr, ptr %__k.addr, align 8
  %call = call noundef i64 @_ZNSt10_HashtableIlSt4pairIKlN4node17BaseObjectPtrImplINS2_4quic6StreamELb0EEEESaIS7_ENSt8__detail10_Select1stESt8equal_toIlESt4hashIlENS9_18_Mod_range_hashingENS9_20_Default_ranged_hashENS9_20_Prime_rehash_policyENS9_17_Hashtable_traitsILb0ELb0ELb1EEEE8_M_eraseESt17integral_constantIbLb1EERS1_(ptr noundef nonnull align 8 dereferenceable(56) %this1, ptr noundef nonnull align 8 dereferenceable(8) %0)
  ret i64 %call
}

; Function Attrs: mustprogress nounwind uwtable
define linkonce_odr dso_local noundef ptr @_ZNKSt15__uniq_ptr_implI11ngtcp2_connN4node15FunctionDeleterIS0_XadL_Z15ngtcp2_conn_delEEEEE6_M_ptrEv(ptr noundef nonnull align 8 dereferenceable(8) %this) #4 comdat align 2 {
entry:
  %this.addr = alloca ptr, align 8
  store ptr %this, ptr %this.addr, align 8
  %this1 = load ptr, ptr %this.addr, align 8
  %_M_t = getelementptr inbounds %"class.std::__uniq_ptr_impl", ptr %this1, i32 0, i32 0
  %call = call noundef nonnull align 8 dereferenceable(8) ptr @_ZSt3getILm0EJP11ngtcp2_connN4node15FunctionDeleterIS0_XadL_Z15ngtcp2_conn_delEEEEEERKNSt13tuple_elementIXT_ESt5tupleIJDpT0_EEE4typeERKS9_(ptr noundef nonnull align 8 dereferenceable(8) %_M_t) #3
  %0 = load ptr, ptr %call, align 8
  ret ptr %0
}

; Function Attrs: mustprogress nounwind uwtable
define dso_local noundef ptr @_ZNK4node4quic7SessioncvP11ngtcp2_connEv(ptr noundef nonnull align 8 dereferenceable(2616) %this) #4 align 2 {
entry:
  %this.addr = alloca ptr, align 8
  store ptr %this, ptr %this.addr, align 8
  %this1 = load ptr, ptr %this.addr, align 8
  %connection_ = getelementptr inbounds %"class.node::quic::Session", ptr %this1, i32 0, i32 6
  %call = call noundef ptr @_ZNKSt10unique_ptrI11ngtcp2_connN4node15FunctionDeleterIS0_XadL_Z15ngtcp2_conn_delEEEEE3getEv(ptr noundef nonnull align 8 dereferenceable(8) %connection_) #3
  ret ptr %call
}

; Function Attrs: mustprogress nounwind uwtable
define linkonce_odr dso_local noundef i64 @_ZNSt13unordered_mapIlN4node17BaseObjectPtrImplINS0_4quic6StreamELb0EEESt4hashIlESt8equal_toIlESaISt4pairIKlS4_EEE5eraseERSA_(ptr noundef nonnull align 8 dereferenceable(56) %this, ptr noundef nonnull align 8 dereferenceable(8) %__x) #4 comdat align 2 {
entry:
  %this.addr = alloca ptr, align 8
  %__x.addr = alloca ptr, align 8
  store ptr %this, ptr %this.addr, align 8
  store ptr %__x, ptr %__x.addr, align 8
  %this1 = load ptr, ptr %this.addr, align 8
  %_M_h = getelementptr inbounds %"class.std::unordered_map", ptr %this1, i32 0, i32 0
  %0 = load ptr, ptr %__x.addr, align 8
  %call = call noundef i64 @_ZNSt10_HashtableIlSt4pairIKlN4node17BaseObjectPtrImplINS2_4quic6StreamELb0EEEESaIS7_ENSt8__detail10_Select1stESt8equal_toIlESt4hashIlENS9_18_Mod_range_hashingENS9_20_Default_ranged_hashENS9_20_Prime_rehash_policyENS9_17_Hashtable_traitsILb0ELb0ELb1EEEE5eraseERS1_(ptr noundef nonnull align 8 dereferenceable(56) %_M_h, ptr noundef nonnull align 8 dereferenceable(8) %0)
  ret i64 %call
}

; Function Attrs: mustprogress nounwind uwtable
define linkonce_odr dso_local noundef ptr @_ZNKSt10unique_ptrI11ngtcp2_connN4node15FunctionDeleterIS0_XadL_Z15ngtcp2_conn_delEEEEE3getEv(ptr noundef nonnull align 8 dereferenceable(8) %this) #4 comdat align 2 {
entry:
  %this.addr = alloca ptr, align 8
  store ptr %this, ptr %this.addr, align 8
  %this1 = load ptr, ptr %this.addr, align 8
  %_M_t = getelementptr inbounds %"class.std::unique_ptr", ptr %this1, i32 0, i32 0
  %call = call noundef ptr @_ZNKSt15__uniq_ptr_implI11ngtcp2_connN4node15FunctionDeleterIS0_XadL_Z15ngtcp2_conn_delEEEEE6_M_ptrEv(ptr noundef nonnull align 8 dereferenceable(8) %_M_t) #3
  ret ptr %call
}

; Function Attrs: mustprogress nounwind uwtable
define linkonce_odr dso_local noundef ptr @_ZN4node13AliasedStructINS_4quic7Session5StateEEptEv(ptr noundef nonnull align 8 dereferenceable(40) %this) #4 comdat align 2 {
entry:
  %this.addr = alloca ptr, align 8
  store ptr %this, ptr %this.addr, align 8
  %this1 = load ptr, ptr %this.addr, align 8
  %ptr_ = getelementptr inbounds %"class.node::AliasedStruct.2", ptr %this1, i32 0, i32 2
  %0 = load ptr, ptr %ptr_, align 8
  ret ptr %0
}

; Function Attrs: mustprogress nounwind uwtable
define dso_local noundef zeroext i1 @_ZNK4node4quic7Session20is_in_closing_periodEv(ptr noundef nonnull align 8 dereferenceable(2616) %this) #4 align 2 {
entry:
  %this.addr = alloca ptr, align 8
  store ptr %this, ptr %this.addr, align 8
  %this1 = load ptr, ptr %this.addr, align 8
  %call = call noundef ptr @_ZNK4node4quic7SessioncvP11ngtcp2_connEv(ptr noundef nonnull align 8 dereferenceable(2616) %this1)
  %call2 = call i32 @ngtcp2_conn_is_in_closing_period(ptr noundef %call)
  %tobool = icmp ne i32 %call2, 0
  ret i1 %tobool
}

; Function Attrs: mustprogress nounwind uwtable
define dso_local noundef zeroext i1 @_ZNK4node4quic7Session21is_in_draining_periodEv(ptr noundef nonnull align 8 dereferenceable(2616) %this) #4 align 2 {
entry:
  %this.addr = alloca ptr, align 8
  store ptr %this, ptr %this.addr, align 8
  %this1 = load ptr, ptr %this.addr, align 8
  %call = call noundef ptr @_ZNK4node4quic7SessioncvP11ngtcp2_connEv(ptr noundef nonnull align 8 dereferenceable(2616) %this1)
  %call2 = call i32 @ngtcp2_conn_is_in_draining_period(ptr noundef %call)
  %tobool = icmp ne i32 %call2, 0
  ret i1 %tobool
}

; Function Attrs: mustprogress nounwind uwtable
define dso_local void @_ZN4node4quic7Session12RemoveStreamEl(ptr noundef nonnull align 8 dereferenceable(2616) %this, i64 noundef %id) #4 align 2 {
entry:
  %this.addr = alloca ptr, align 8
  %id.addr = alloca i64, align 8
  store ptr %this, ptr %this.addr, align 8
  store i64 %id, ptr %id.addr, align 8
  %this1 = load ptr, ptr %this.addr, align 8
  %call = call noundef zeroext i1 @_ZNK4node4quic7Session21is_in_draining_periodEv(ptr noundef nonnull align 8 dereferenceable(2616) %this1)
  br i1 %call, label %if.end16, label %land.lhs.true

land.lhs.true:                                    ; preds = %entry
  %call2 = call noundef zeroext i1 @_ZNK4node4quic7Session20is_in_closing_periodEv(ptr noundef nonnull align 8 dereferenceable(2616) %this1)
  br i1 %call2, label %if.end16, label %land.lhs.true3

land.lhs.true3:                                   ; preds = %land.lhs.true
  %state_ = getelementptr inbounds %"class.node::quic::Session", ptr %this1, i32 0, i32 3
  %call4 = call noundef ptr @_ZN4node13AliasedStructINS_4quic7Session5StateEEptEv(ptr noundef nonnull align 8 dereferenceable(40) %state_)
  %silent_close = getelementptr inbounds %"struct.node::quic::Session::State", ptr %call4, i32 0, i32 6
  %0 = load i8, ptr %silent_close, align 2
  %tobool = icmp ne i8 %0, 0
  br i1 %tobool, label %if.end16, label %land.lhs.true5

land.lhs.true5:                                   ; preds = %land.lhs.true3
  %connection_ = getelementptr inbounds %"class.node::quic::Session", ptr %this1, i32 0, i32 6
  %call6 = call noundef ptr @_ZNKSt10unique_ptrI11ngtcp2_connN4node15FunctionDeleterIS0_XadL_Z15ngtcp2_conn_delEEEEE3getEv(ptr noundef nonnull align 8 dereferenceable(8) %connection_) #3
  %1 = load i64, ptr %id.addr, align 8
  %call7 = call i32 @ngtcp2_conn_is_local_stream(ptr noundef %call6, i64 noundef %1)
  %tobool8 = icmp ne i32 %call7, 0
  br i1 %tobool8, label %if.end16, label %if.then

if.then:                                          ; preds = %land.lhs.true5
  %2 = load i64, ptr %id.addr, align 8
  %call9 = call i32 @ngtcp2_is_bidi_stream(i64 noundef %2)
  %tobool10 = icmp ne i32 %call9, 0
  br i1 %tobool10, label %if.then11, label %if.else

if.then11:                                        ; preds = %if.then
  %connection_12 = getelementptr inbounds %"class.node::quic::Session", ptr %this1, i32 0, i32 6
  %call13 = call noundef ptr @_ZNKSt10unique_ptrI11ngtcp2_connN4node15FunctionDeleterIS0_XadL_Z15ngtcp2_conn_delEEEEE3getEv(ptr noundef nonnull align 8 dereferenceable(8) %connection_12) #3
  call void @ngtcp2_conn_extend_max_streams_bidi(ptr noundef %call13, i64 noundef 1)
  br label %if.end

if.else:                                          ; preds = %if.then
  %connection_14 = getelementptr inbounds %"class.node::quic::Session", ptr %this1, i32 0, i32 6
  %call15 = call noundef ptr @_ZNKSt10unique_ptrI11ngtcp2_connN4node15FunctionDeleterIS0_XadL_Z15ngtcp2_conn_delEEEEE3getEv(ptr noundef nonnull align 8 dereferenceable(8) %connection_14) #3
  call void @ngtcp2_conn_extend_max_streams_uni(ptr noundef %call15, i64 noundef 1)
  br label %if.end

if.end:                                           ; preds = %if.else, %if.then11
  br label %if.end16

if.end16:                                         ; preds = %if.end, %land.lhs.true5, %land.lhs.true3, %land.lhs.true, %entry
  %streams_ = getelementptr inbounds %"class.node::quic::Session", ptr %this1, i32 0, i32 12
  %call17 = call noundef i64 @_ZNSt13unordered_mapIlN4node17BaseObjectPtrImplINS0_4quic6StreamELb0EEESt4hashIlESt8equal_toIlESaISt4pairIKlS4_EEE5eraseERSA_(ptr noundef nonnull align 8 dereferenceable(56) %streams_, ptr noundef nonnull align 8 dereferenceable(8) %id.addr)
  %call18 = call noundef ptr @_ZNK4node4quic7SessioncvP11ngtcp2_connEv(ptr noundef nonnull align 8 dereferenceable(2616) %this1)
  %3 = load i64, ptr %id.addr, align 8
  %call19 = call i32 @ngtcp2_conn_set_stream_user_data(ptr noundef %call18, i64 noundef %3, ptr noundef null)
  ret void
}