; Function Attrs: mustprogress nounwind uwtable
define dso_local void @_ZN4node4quic7Session12RemoveStreamEl(ptr noundef nonnull align 8 dereferenceable(2616) %this, i64 noundef %id) local_unnamed_addr #5 align 2 {
entry:
  %id.addr = alloca i64, align 8
  store i64 %id, ptr %id.addr, align 8
  %connection_.i.i = getelementptr inbounds i8, ptr %this, i64 1768
  %0 = load ptr, ptr %connection_.i.i, align 8
  %call2.i = tail call i32 @ngtcp2_conn_is_in_draining_period(ptr noundef %0) #28
  %tobool.i.not = icmp eq i32 %call2.i, 0
  br i1 %tobool.i.not, label %land.lhs.true, label %if.end16

land.lhs.true:                                    ; preds = %entry
  %1 = load ptr, ptr %connection_.i.i, align 8
  %call2.i2 = tail call i32 @ngtcp2_conn_is_in_closing_period(ptr noundef %1) #28
  %tobool.i3.not = icmp eq i32 %call2.i2, 0
  br i1 %tobool.i3.not, label %land.lhs.true3, label %if.end16

land.lhs.true3:                                   ; preds = %land.lhs.true
  %ptr_.i = getelementptr inbounds i8, ptr %this, i64 128
  %2 = load ptr, ptr %ptr_.i, align 8
  %silent_close = getelementptr inbounds i8, ptr %2, i64 6
  %3 = load i8, ptr %silent_close, align 2
  %tobool.not = icmp eq i8 %3, 0
  br i1 %tobool.not, label %land.lhs.true5, label %if.end16

land.lhs.true5:                                   ; preds = %land.lhs.true3
  %4 = load ptr, ptr %connection_.i.i, align 8
  %call7 = tail call i32 @ngtcp2_conn_is_local_stream(ptr noundef %4, i64 noundef %id) #28
  %tobool8.not = icmp eq i32 %call7, 0
  br i1 %tobool8.not, label %if.then, label %if.end16

if.then:                                          ; preds = %land.lhs.true5
  %call9 = tail call i32 @ngtcp2_is_bidi_stream(i64 noundef %id) #28
  %tobool10.not = icmp eq i32 %call9, 0
  %5 = load ptr, ptr %connection_.i.i, align 8
  br i1 %tobool10.not, label %if.else, label %if.then11

if.then11:                                        ; preds = %if.then
  tail call void @ngtcp2_conn_extend_max_streams_bidi(ptr noundef %5, i64 noundef 1) #28
  br label %if.end16

if.else:                                          ; preds = %if.then
  tail call void @ngtcp2_conn_extend_max_streams_uni(ptr noundef %5, i64 noundef 1) #28
  br label %if.end16

if.end16:                                         ; preds = %if.then11, %if.else, %land.lhs.true5, %land.lhs.true3, %land.lhs.true, %entry
  %streams_ = getelementptr inbounds i8, ptr %this, i64 2416
  %call.i.i = call noundef i64 @_ZNSt10_HashtableIlSt4pairIKlN4node17BaseObjectPtrImplINS2_4quic6StreamELb0EEEESaIS7_ENSt8__detail10_Select1stESt8equal_toIlESt4hashIlENS9_18_Mod_range_hashingENS9_20_Default_ranged_hashENS9_20_Prime_rehash_policyENS9_17_Hashtable_traitsILb0ELb0ELb1EEEE8_M_eraseESt17integral_constantIbLb1EERS1_(ptr noundef nonnull align 8 dereferenceable(56) %streams_, ptr noundef nonnull align 8 dereferenceable(8) %id.addr)
  %6 = load ptr, ptr %connection_.i.i, align 8
  %7 = load i64, ptr %id.addr, align 8
  %call19 = call i32 @ngtcp2_conn_set_stream_user_data(ptr noundef %6, i64 noundef %7, ptr noundef null) #28
  ret void
}